; ModuleID = '16/631.c'
source_filename = "16/631.c"
target datalayout = "e-m:e-p270:32:32-p271:32:32-p272:64:64-i64:64-f80:128-n8:16:32:64-S128"
target triple = "x86_64-pc-linux-gnu"

@.str = private unnamed_addr constant [3 x i8] c"%d\00", align 1
@.str.1 = private unnamed_addr constant [5 x i8] c"%d%d\00", align 1
@.str.2 = private unnamed_addr constant [7 x i8] c"%d%d%d\00", align 1
@.str.3 = private unnamed_addr constant [9 x i8] c"%d%d%d%d\00", align 1

; Function Attrs: noinline nounwind uwtable
define dso_local i32 @main() #0 {
  %1 = alloca i32, align 4
  %2 = alloca i32, align 4
  %3 = alloca i32, align 4
  %4 = alloca i32, align 4
  %5 = alloca i32, align 4
  %6 = alloca i32, align 4
  %7 = alloca i32, align 4
  store i32 0, i32* %1, align 4
  %8 = call i32 (i8*, ...) @__isoc99_scanf(i8* getelementptr inbounds ([3 x i8], [3 x i8]* @.str, i64 0, i64 0), i32* %2)
  %9 = load i32, i32* %2, align 4
  %10 = load i32, i32* %2, align 4
  %11 = srem i32 %10, 1000
  %12 = sub nsw i32 %9, %11
  %13 = sdiv i32 %12, 1000
  store i32 %13, i32* %4, align 4
  %14 = load i32, i32* %2, align 4
  %15 = srem i32 %14, 1000
  %16 = load i32, i32* %2, align 4
  %17 = srem i32 %16, 100
  %18 = sub nsw i32 %15, %17
  %19 = sdiv i32 %18, 100
  store i32 %19, i32* %5, align 4
  %20 = load i32, i32* %2, align 4
  %21 = srem i32 %20, 100
  %22 = load i32, i32* %2, align 4
  %23 = srem i32 %22, 10
  %24 = sub nsw i32 %21, %23
  %25 = sdiv i32 %24, 10
  store i32 %25, i32* %6, align 4
  %26 = load i32, i32* %2, align 4
  %27 = srem i32 %26, 10
  store i32 %27, i32* %7, align 4
  %28 = load i32, i32* %7, align 4
  %29 = mul nsw i32 %28, 1000
  %30 = load i32, i32* %6, align 4
  %31 = mul nsw i32 %30, 100
  %32 = add nsw i32 %29, %31
  %33 = load i32, i32* %5, align 4
  %34 = mul nsw i32 %33, 10
  %35 = add nsw i32 %32, %34
  %36 = load i32, i32* %4, align 4
  %37 = add nsw i32 %35, %36
  store i32 %37, i32* %3, align 4
  %38 = load i32, i32* %4, align 4
  %39 = icmp eq i32 %38, 0
  br i1 %39, label %40, label %60

40:                                               ; preds = %0
  %41 = load i32, i32* %5, align 4
  %42 = icmp eq i32 %41, 0
  br i1 %42, label %43, label %54

43:                                               ; preds = %40
  %44 = load i32, i32* %6, align 4
  %45 = icmp eq i32 %44, 0
  br i1 %45, label %46, label %49

46:                                               ; preds = %43
  %47 = load i32, i32* %7, align 4
  %48 = call i32 (i8*, ...) @printf(i8* getelementptr inbounds ([3 x i8], [3 x i8]* @.str, i64 0, i64 0), i32 %47)
  br label %53

49:                                               ; preds = %43
  %50 = load i32, i32* %7, align 4
  %51 = load i32, i32* %6, align 4
  %52 = call i32 (i8*, ...) @printf(i8* getelementptr inbounds ([5 x i8], [5 x i8]* @.str.1, i64 0, i64 0), i32 %50, i32 %51)
  br label %53

53:                                               ; preds = %49, %46
  br label %59

54:                                               ; preds = %40
  %55 = load i32, i32* %7, align 4
  %56 = load i32, i32* %6, align 4
  %57 = load i32, i32* %5, align 4
  %58 = call i32 (i8*, ...) @printf(i8* getelementptr inbounds ([7 x i8], [7 x i8]* @.str.2, i64 0, i64 0), i32 %55, i32 %56, i32 %57)
  br label %59

59:                                               ; preds = %54, %53
  br label %66

60:                                               ; preds = %0
  %61 = load i32, i32* %7, align 4
  %62 = load i32, i32* %6, align 4
  %63 = load i32, i32* %5, align 4
  %64 = load i32, i32* %4, align 4
  %65 = call i32 (i8*, ...) @printf(i8* getelementptr inbounds ([9 x i8], [9 x i8]* @.str.3, i64 0, i64 0), i32 %61, i32 %62, i32 %63, i32 %64)
  br label %66

66:                                               ; preds = %60, %59
  ret i32 0
}

declare dso_local i32 @__isoc99_scanf(i8*, ...) #1

declare dso_local i32 @printf(i8*, ...) #1


!llvm.module.flags = !{!0}
!llvm.ident = !{!1}

!0 = !{i32 1, !"wchar_size", i32 4}
!1 = !{!"clang version 10.0.0-4ubuntu1 "}
